; Function Attrs: nounwind uwtable
define dso_local void @startAppendOnlyWithRetry() local_unnamed_addr #0 {
  br label %1

1:                                                ; preds = %0, %8
  %.06 = phi i32 [ 0, %0 ], [ %10, %8 ]
  %2 = tail call i32 @startAppendOnly()
  %3 = icmp eq i32 %2, 0
  br i1 %3, label %.thread, label %4

4:                                                ; preds = %1
  %5 = load i32, ptr getelementptr inbounds nuw (i8, ptr @server, i64 6288), align 8, !tbaa !65
  %6 = icmp sgt i32 %5, 3
  br i1 %6, label %8, label %7

7:                                                ; preds = %4
  tail call void (i32, ptr, ...) @_serverLog(i32 noundef 3, ptr noundef nonnull @.str.73) #20
  br label %8

8:                                                ; preds = %4, %7
  %9 = tail call i32 @sleep(i32 noundef 1) #20
  %10 = add nuw nsw i32 %.06, 1
  %exitcond.not = icmp eq i32 %10, 10
  br i1 %exitcond.not, label %11, label %1, !llvm.loop !114

11:                                               ; preds = %8
  %12 = load i32, ptr getelementptr inbounds nuw (i8, ptr @server, i64 6288), align 8, !tbaa !65
  %13 = icmp sgt i32 %12, 3
  br i1 %13, label %15, label %14

14:                                               ; preds = %11
  tail call void (i32, ptr, ...) @_serverLog(i32 noundef 3, ptr noundef nonnull @.str.74) #20
  br label %15

15:                                               ; preds = %11, %14
  tail call void @exit(i32 noundef 1) #23
  unreachable

.thread:                                          ; preds = %1
  ret void
}